; Function Attrs: nounwind uwtable
define void @OSQPMatrix_free(ptr noundef %0) local_unnamed_addr #0 {
  %.not = icmp eq ptr %0, null
  br i1 %.not, label %4, label %2

2:                                                ; preds = %1
  %3 = load ptr, ptr %0, align 8
  tail call void @csc_spfree(ptr noundef %3) #7
  br label %4

4:                                                ; preds = %2, %1
  tail call void @free(ptr noundef %0) #7
  ret void
}